target datalayout = "e-m:e-p270:32:32-p271:32:32-p272:64:64-i64:64-i128:128-f80:128-n8:16:32:64-S128"
target triple = "x86_64-pc-linux-gnu"

%struct.LZ4_stream_t_internal = type { [4096 x i32], ptr, ptr, i32, i32, i32 }

; Function Attrs: alwaysinline mustprogress nounwind uwtable
define internal void @_ZL16LZ4_prepareTableP21LZ4_stream_t_internali11tableType_t(ptr noundef %0, i32 noundef %1, i32 noundef %2) #4 {
  %4 = alloca ptr, align 8
  %5 = alloca i32, align 4
  %6 = alloca i32, align 4
  store ptr %0, ptr %4, align 8, !tbaa !14
  store i32 %1, ptr %5, align 4, !tbaa !6
  store i32 %2, ptr %6, align 4, !tbaa !16
  %7 = load ptr, ptr %4, align 8, !tbaa !14
  %8 = getelementptr inbounds nuw %struct.LZ4_stream_t_internal, ptr %7, i32 0, i32 4
  %9 = load i32, ptr %8, align 4, !tbaa !31
  %10 = icmp ne i32 %9, 0
  br i1 %10, label %11, label %51

11:                                               ; preds = %3
  %12 = load ptr, ptr %4, align 8, !tbaa !14
  %13 = getelementptr inbounds nuw %struct.LZ4_stream_t_internal, ptr %12, i32 0, i32 4
  %14 = load i32, ptr %13, align 4, !tbaa !31
  %15 = load i32, ptr %6, align 4, !tbaa !16
  %16 = icmp ne i32 %14, %15
  br i1 %16, label %41, label %17

17:                                               ; preds = %11
  %18 = load i32, ptr %6, align 4, !tbaa !16
  %19 = icmp eq i32 %18, 3
  br i1 %19, label %20, label %27

20:                                               ; preds = %17
  %21 = load ptr, ptr %4, align 8, !tbaa !14
  %22 = getelementptr inbounds nuw %struct.LZ4_stream_t_internal, ptr %21, i32 0, i32 3
  %23 = load i32, ptr %22, align 8, !tbaa !29
  %24 = load i32, ptr %5, align 4, !tbaa !6
  %25 = add i32 %23, %24
  %26 = icmp uge i32 %25, 65535
  br i1 %26, label %41, label %27

27:                                               ; preds = %20, %17
  %28 = load i32, ptr %6, align 4, !tbaa !16
  %29 = icmp eq i32 %28, 2
  br i1 %29, label %30, label %35

30:                                               ; preds = %27
  %31 = load ptr, ptr %4, align 8, !tbaa !14
  %32 = getelementptr inbounds nuw %struct.LZ4_stream_t_internal, ptr %31, i32 0, i32 3
  %33 = load i32, ptr %32, align 8, !tbaa !29
  %34 = icmp ugt i32 %33, 1073741824
  br i1 %34, label %41, label %35

35:                                               ; preds = %30, %27
  %36 = load i32, ptr %6, align 4, !tbaa !16
  %37 = icmp eq i32 %36, 1
  br i1 %37, label %41, label %38

38:                                               ; preds = %35
  %39 = load i32, ptr %5, align 4, !tbaa !6
  %40 = icmp sge i32 %39, 4096
  br i1 %40, label %41, label %49

41:                                               ; preds = %38, %35, %30, %20, %11
  %42 = load ptr, ptr %4, align 8, !tbaa !14
  %43 = getelementptr inbounds nuw %struct.LZ4_stream_t_internal, ptr %42, i32 0, i32 0
  %44 = getelementptr inbounds [4096 x i32], ptr %43, i64 0, i64 0
  call void @llvm.memset.p0.i64(ptr align 8 %44, i8 0, i64 16384, i1 false)
  %45 = load ptr, ptr %4, align 8, !tbaa !14
  %46 = getelementptr inbounds nuw %struct.LZ4_stream_t_internal, ptr %45, i32 0, i32 3
  store i32 0, ptr %46, align 8, !tbaa !29
  %47 = load ptr, ptr %4, align 8, !tbaa !14
  %48 = getelementptr inbounds nuw %struct.LZ4_stream_t_internal, ptr %47, i32 0, i32 4
  store i32 0, ptr %48, align 4, !tbaa !31
  br label %50

49:                                               ; preds = %38
  br label %50

50:                                               ; preds = %49, %41
  br label %51

51:                                               ; preds = %50, %3
  %52 = load ptr, ptr %4, align 8, !tbaa !14
  %53 = getelementptr inbounds nuw %struct.LZ4_stream_t_internal, ptr %52, i32 0, i32 3
  %54 = load i32, ptr %53, align 8, !tbaa !29
  %55 = icmp ne i32 %54, 0
  br i1 %55, label %56, label %64

56:                                               ; preds = %51
  %57 = load i32, ptr %6, align 4, !tbaa !16
  %58 = icmp eq i32 %57, 2
  br i1 %58, label %59, label %64

59:                                               ; preds = %56
  %60 = load ptr, ptr %4, align 8, !tbaa !14
  %61 = getelementptr inbounds nuw %struct.LZ4_stream_t_internal, ptr %60, i32 0, i32 3
  %62 = load i32, ptr %61, align 8, !tbaa !29
  %63 = add i32 %62, 65536
  store i32 %63, ptr %61, align 8, !tbaa !29
  br label %64

64:                                               ; preds = %59, %56, %51
  %65 = load ptr, ptr %4, align 8, !tbaa !14
  %66 = getelementptr inbounds nuw %struct.LZ4_stream_t_internal, ptr %65, i32 0, i32 2
  store ptr null, ptr %66, align 8, !tbaa !32
  %67 = load ptr, ptr %4, align 8, !tbaa !14
  %68 = getelementptr inbounds nuw %struct.LZ4_stream_t_internal, ptr %67, i32 0, i32 1
  store ptr null, ptr %68, align 8, !tbaa !33
  %69 = load ptr, ptr %4, align 8, !tbaa !14
  %70 = getelementptr inbounds nuw %struct.LZ4_stream_t_internal, ptr %69, i32 0, i32 5
  store i32 0, ptr %70, align 8, !tbaa !34
  ret void
}

; Function Attrs: mustprogress uwtable
define void @LZ4_resetStream_fast(ptr noundef %0) #1 {
  %2 = alloca ptr, align 8
  store ptr %0, ptr %2, align 8, !tbaa !35
  %3 = load ptr, ptr %2, align 8, !tbaa !35
  call void @_ZL16LZ4_prepareTableP21LZ4_stream_t_internali11tableType_t(ptr noundef %3, i32 noundef 0, i32 noundef 2)
  ret void
}